target datalayout = "e-m:e-p270:32:32-p271:32:32-p272:64:64-i64:64-i128:128-f80:128-n8:16:32:64-S128"
target triple = "x86_64-unknown-linux-gnu"

@.str.12 = private unnamed_addr constant [147 x i8] c"generated/home/dtcxzyw/WorkSpace/Projects/compilers/llvm-opt-benchmark/bench/grpc/grpc/src/core/ext/transport/chttp2/transport/chttp2_transport.cc\00", align 1
@.str.65 = private unnamed_addr constant [14 x i8] c"INITIAL_WRITE\00", align 1
@.str.66 = private unnamed_addr constant [17 x i8] c"START_NEW_STREAM\00", align 1
@.str.67 = private unnamed_addr constant [13 x i8] c"SEND_MESSAGE\00", align 1
@.str.68 = private unnamed_addr constant [22 x i8] c"SEND_INITIAL_METADATA\00", align 1
@.str.69 = private unnamed_addr constant [23 x i8] c"SEND_TRAILING_METADATA\00", align 1
@.str.70 = private unnamed_addr constant [16 x i8] c"RETRY_SEND_PING\00", align 1
@.str.71 = private unnamed_addr constant [15 x i8] c"CONTINUE_PINGS\00", align 1
@.str.72 = private unnamed_addr constant [12 x i8] c"GOAWAY_SENT\00", align 1
@.str.73 = private unnamed_addr constant [11 x i8] c"RST_STREAM\00", align 1
@.str.74 = private unnamed_addr constant [15 x i8] c"CLOSE_FROM_API\00", align 1
@.str.75 = private unnamed_addr constant [20 x i8] c"STREAM_FLOW_CONTROL\00", align 1
@.str.76 = private unnamed_addr constant [23 x i8] c"TRANSPORT_FLOW_CONTROL\00", align 1
@.str.77 = private unnamed_addr constant [14 x i8] c"SEND_SETTINGS\00", align 1
@.str.78 = private unnamed_addr constant [13 x i8] c"SETTINGS_ACK\00", align 1
@.str.79 = private unnamed_addr constant [34 x i8] c"FLOW_CONTROL_UNSTALLED_BY_SETTING\00", align 1
@.str.80 = private unnamed_addr constant [33 x i8] c"FLOW_CONTROL_UNSTALLED_BY_UPDATE\00", align 1
@.str.81 = private unnamed_addr constant [17 x i8] c"APPLICATION_PING\00", align 1
@.str.82 = private unnamed_addr constant [9 x i8] c"BDP_PING\00", align 1
@.str.83 = private unnamed_addr constant [15 x i8] c"KEEPALIVE_PING\00", align 1
@.str.84 = private unnamed_addr constant [33 x i8] c"TRANSPORT_FLOW_CONTROL_UNSTALLED\00", align 1
@.str.85 = private unnamed_addr constant [14 x i8] c"PING_RESPONSE\00", align 1
@.str.86 = private unnamed_addr constant [17 x i8] c"FORCE_RST_STREAM\00", align 1
@.str.87 = private unnamed_addr constant [17 x i8] c"return \22unknown\22\00", align 1

; Function Attrs: mustprogress uwtable
define noundef ptr @_Z40grpc_chttp2_initiate_write_reason_string33grpc_chttp2_initiate_write_reason(i32 noundef %reason) #5 {
entry:
  %retval = alloca ptr, align 8
  %reason.addr = alloca i32, align 4
  store i32 %reason, ptr %reason.addr, align 4
  %0 = load i32, ptr %reason.addr, align 4
  switch i32 %0, label %sw.epilog [
    i32 0, label %sw.bb
    i32 1, label %sw.bb1
    i32 2, label %sw.bb2
    i32 3, label %sw.bb3
    i32 4, label %sw.bb4
    i32 5, label %sw.bb5
    i32 6, label %sw.bb6
    i32 7, label %sw.bb7
    i32 8, label %sw.bb8
    i32 9, label %sw.bb9
    i32 10, label %sw.bb10
    i32 11, label %sw.bb11
    i32 12, label %sw.bb12
    i32 13, label %sw.bb13
    i32 14, label %sw.bb14
    i32 15, label %sw.bb15
    i32 16, label %sw.bb16
    i32 17, label %sw.bb17
    i32 18, label %sw.bb18
    i32 19, label %sw.bb19
    i32 20, label %sw.bb20
    i32 21, label %sw.bb21
  ]

sw.bb:                                            ; preds = %entry
  store ptr @.str.65, ptr %retval, align 8
  br label %return

sw.bb1:                                           ; preds = %entry
  store ptr @.str.66, ptr %retval, align 8
  br label %return

sw.bb2:                                           ; preds = %entry
  store ptr @.str.67, ptr %retval, align 8
  br label %return

sw.bb3:                                           ; preds = %entry
  store ptr @.str.68, ptr %retval, align 8
  br label %return

sw.bb4:                                           ; preds = %entry
  store ptr @.str.69, ptr %retval, align 8
  br label %return

sw.bb5:                                           ; preds = %entry
  store ptr @.str.70, ptr %retval, align 8
  br label %return

sw.bb6:                                           ; preds = %entry
  store ptr @.str.71, ptr %retval, align 8
  br label %return

sw.bb7:                                           ; preds = %entry
  store ptr @.str.72, ptr %retval, align 8
  br label %return

sw.bb8:                                           ; preds = %entry
  store ptr @.str.73, ptr %retval, align 8
  br label %return

sw.bb9:                                           ; preds = %entry
  store ptr @.str.74, ptr %retval, align 8
  br label %return

sw.bb10:                                          ; preds = %entry
  store ptr @.str.75, ptr %retval, align 8
  br label %return

sw.bb11:                                          ; preds = %entry
  store ptr @.str.76, ptr %retval, align 8
  br label %return

sw.bb12:                                          ; preds = %entry
  store ptr @.str.77, ptr %retval, align 8
  br label %return

sw.bb13:                                          ; preds = %entry
  store ptr @.str.78, ptr %retval, align 8
  br label %return

sw.bb14:                                          ; preds = %entry
  store ptr @.str.79, ptr %retval, align 8
  br label %return

sw.bb15:                                          ; preds = %entry
  store ptr @.str.80, ptr %retval, align 8
  br label %return

sw.bb16:                                          ; preds = %entry
  store ptr @.str.81, ptr %retval, align 8
  br label %return

sw.bb17:                                          ; preds = %entry
  store ptr @.str.82, ptr %retval, align 8
  br label %return

sw.bb18:                                          ; preds = %entry
  store ptr @.str.83, ptr %retval, align 8
  br label %return

sw.bb19:                                          ; preds = %entry
  store ptr @.str.84, ptr %retval, align 8
  br label %return

sw.bb20:                                          ; preds = %entry
  store ptr @.str.85, ptr %retval, align 8
  br label %return

sw.bb21:                                          ; preds = %entry
  store ptr @.str.86, ptr %retval, align 8
  br label %return

sw.epilog:                                        ; preds = %entry
  br label %do.body

do.body:                                          ; preds = %sw.epilog
  call void @gpr_unreachable_code(ptr noundef @.str.87, ptr noundef @.str.12, i32 noundef 3298) #22
  unreachable

do.end:                                           ; No predecessors!
  call void @llvm.trap()
  unreachable

return:                                           ; preds = %sw.bb21, %sw.bb20, %sw.bb19, %sw.bb18, %sw.bb17, %sw.bb16, %sw.bb15, %sw.bb14, %sw.bb13, %sw.bb12, %sw.bb11, %sw.bb10, %sw.bb9, %sw.bb8, %sw.bb7, %sw.bb6, %sw.bb5, %sw.bb4, %sw.bb3, %sw.bb2, %sw.bb1, %sw.bb
  %1 = load ptr, ptr %retval, align 8
  ret ptr %1
}