; Function Attrs: mustprogress uwtable
define noundef nonnull ptr @_Z40grpc_chttp2_initiate_write_reason_string33grpc_chttp2_initiate_write_reason(i32 noundef %reason) local_unnamed_addr #5 {
entry:
  %0 = icmp ult i32 %reason, 22
  br i1 %0, label %switch.lookup, label %do.body

do.body:                                          ; preds = %entry
  tail call void @gpr_unreachable_code(ptr noundef nonnull @.str.87, ptr noundef nonnull @.str.12, i32 noundef 3298) #36
  unreachable

switch.lookup:                                    ; preds = %entry
  %1 = zext nneg i32 %reason to i64
  %switch.gep = getelementptr inbounds [22 x ptr], ptr @switch.table._Z40grpc_chttp2_initiate_write_reason_string33grpc_chttp2_initiate_write_reason, i64 0, i64 %1
  %switch.load = load ptr, ptr %switch.gep, align 8
  ret ptr %switch.load
}